; Function Attrs: nounwind uwtable
define internal ptr @unicode_translate_set_end(ptr readnone captures(none) %0, ptr noundef %1) #0 {
  %3 = alloca ptr, align 8
  %4 = alloca i64, align 8
  call void @llvm.lifetime.start.p0(i64 8, ptr nonnull %3) #8
  call void @llvm.lifetime.start.p0(i64 8, ptr nonnull %4) #8
  %5 = call i32 (ptr, ptr, ...) @PyArg_ParseTuple(ptr noundef %1, ptr noundef nonnull @.str.61, ptr noundef nonnull %3, ptr noundef nonnull %4) #8
  %6 = icmp slt i32 %5, 0
  br i1 %6, label %12, label %7

7:                                                ; preds = %2
  %8 = load ptr, ptr %3, align 8, !tbaa !3
  %9 = load i64, ptr %4, align 8, !tbaa !26
  %10 = call i32 @PyUnicodeTranslateError_SetEnd(ptr noundef %8, i64 noundef %9) #8
  %11 = icmp slt i32 %10, 0
  %._Py_NoneStruct = select i1 %11, ptr null, ptr @_Py_NoneStruct
  br label %12

12:                                               ; preds = %7, %2
  %.0 = phi ptr [ null, %2 ], [ %._Py_NoneStruct, %7 ]
  call void @llvm.lifetime.end.p0(i64 8, ptr nonnull %4) #8
  call void @llvm.lifetime.end.p0(i64 8, ptr nonnull %3) #8
  ret ptr %.0
}